; Function Attrs: nounwind uwtable
define range(i32 0, 2) i32 @SSL_CTX_use_certificate(ptr noundef %0, ptr noundef %1) local_unnamed_addr #0 {
  %3 = icmp eq ptr %1, null
  br i1 %3, label %4, label %5

4:                                                ; preds = %2
  tail call void @ERR_new() #6
  tail call void @ERR_set_debug(ptr noundef nonnull @.str, i32 noundef 244, ptr noundef nonnull @__func__.SSL_CTX_use_certificate) #6
  tail call void (i32, i32, ptr, ...) @ERR_set_error(i32 noundef 20, i32 noundef 786690, ptr noundef null) #6
  br label %12

5:                                                ; preds = %2
  %6 = tail call i32 @ssl_security_cert(ptr noundef null, ptr noundef %0, ptr noundef nonnull %1, i32 noundef 0, i32 noundef 1) #6
  %.not = icmp eq i32 %6, 1
  br i1 %.not, label %8, label %7

7:                                                ; preds = %5
  tail call void @ERR_new() #6
  tail call void @ERR_set_debug(ptr noundef nonnull @.str, i32 noundef 250, ptr noundef nonnull @__func__.SSL_CTX_use_certificate) #6
  tail call void (i32, i32, ptr, ...) @ERR_set_error(i32 noundef 20, i32 noundef %6, ptr noundef null) #6
  br label %12

8:                                                ; preds = %5
  %9 = getelementptr inbounds nuw i8, ptr %0, i64 344
  %10 = load ptr, ptr %9, align 8, !tbaa !100
  %11 = tail call fastcc i32 @ssl_set_cert(ptr noundef %10, ptr noundef %1, ptr noundef %0)
  br label %12

12:                                               ; preds = %8, %7, %4
  %.0 = phi i32 [ 0, %4 ], [ 0, %7 ], [ %11, %8 ]
  ret i32 %.0
}